; Function Attrs: mustprogress uwtable
define void @_ZN5arrow2io16RandomAccessFileC2Ev(ptr nocapture noundef nonnull align 8 dereferenceable(24) %this, ptr nocapture noundef readonly %vtt) unnamed_addr #0 align 2 personality ptr @__gxx_personality_v0 {
entry:
  %0 = getelementptr inbounds i8, ptr %vtt, i64 8
  %1 = load ptr, ptr %0, align 8
  store ptr %1, ptr %this, align 8
  %2 = getelementptr inbounds i8, ptr %vtt, i64 16
  %3 = load ptr, ptr %2, align 8
  %vbase.offset.ptr.i = getelementptr i8, ptr %1, i64 -56
  %vbase.offset.i = load i64, ptr %vbase.offset.ptr.i, align 8
  %add.ptr.i = getelementptr inbounds i8, ptr %this, i64 %vbase.offset.i
  store ptr %3, ptr %add.ptr.i, align 8
  %4 = getelementptr inbounds i8, ptr %vtt, i64 24
  %5 = load ptr, ptr %4, align 8
  %vtable3.i = load ptr, ptr %this, align 8
  %vbase.offset.ptr4.i = getelementptr i8, ptr %vtable3.i, i64 -64
  %vbase.offset5.i = load i64, ptr %vbase.offset.ptr4.i, align 8
  %add.ptr6.i = getelementptr inbounds i8, ptr %this, i64 %vbase.offset5.i
  store ptr %5, ptr %add.ptr6.i, align 8
  %6 = getelementptr inbounds i8, ptr %this, i64 8
  store ptr getelementptr inbounds ({ [5 x ptr] }, ptr @_ZTVN5arrow2io8SeekableE, i64 0, i32 0, i64 2), ptr %6, align 8
  %7 = load ptr, ptr %vtt, align 8
  store ptr %7, ptr %this, align 8
  %8 = getelementptr inbounds i8, ptr %vtt, i64 32
  %9 = load ptr, ptr %8, align 8
  %vbase.offset.ptr = getelementptr i8, ptr %7, i64 -56
  %vbase.offset = load i64, ptr %vbase.offset.ptr, align 8
  %add.ptr = getelementptr inbounds i8, ptr %this, i64 %vbase.offset
  store ptr %9, ptr %add.ptr, align 8
  %10 = getelementptr inbounds i8, ptr %vtt, i64 40
  %11 = load ptr, ptr %10, align 8
  %vtable3 = load ptr, ptr %this, align 8
  %vbase.offset.ptr4 = getelementptr i8, ptr %vtable3, i64 -64
  %vbase.offset5 = load i64, ptr %vbase.offset.ptr4, align 8
  %add.ptr6 = getelementptr inbounds i8, ptr %this, i64 %vbase.offset5
  store ptr %11, ptr %add.ptr6, align 8
  store ptr getelementptr inbounds ({ [23 x ptr], [5 x ptr], [15 x ptr] }, ptr @_ZTVN5arrow2io16RandomAccessFileE, i64 0, i32 1, i64 2), ptr %6, align 8
  %call = tail call noalias noundef nonnull dereferenceable(40) ptr @_Znwm(i64 noundef 40) #30
  %interface_impl_ = getelementptr inbounds i8, ptr %this, i64 16
  tail call void @llvm.memset.p0.i64(ptr noundef nonnull align 8 dereferenceable(40) %call, i8 0, i64 40, i1 false)
  store ptr %call, ptr %interface_impl_, align 8
  ret void
}